; Function Attrs: nounwind uwtable
define internal i32 @Lzma2State_SetProps(ptr noundef %0, ptr noundef readonly captures(none) %1, i64 noundef %2, ptr noundef %3) #1 {
  %.not = icmp eq i64 %2, 1
  br i1 %.not, label %5, label %8

5:                                                ; preds = %4
  %6 = load i8, ptr %1, align 1
  %7 = tail call i32 @Lzma2Dec_Allocate(ptr noundef %0, i8 noundef zeroext %6, ptr noundef %3) #10
  br label %8

8:                                                ; preds = %4, %5
  %.0 = phi i32 [ %7, %5 ], [ 4, %4 ]
  ret i32 %.0
}